; Function Attrs: mustprogress nounwind uwtable
define hidden void @_ZNK21vreverse_reg_gfniNode4emitEP17C2_MacroAssemblerP13PhaseRegAlloc(ptr noundef nonnull align 8 dereferenceable(136) %0, ptr noundef %1, ptr noundef %2) unnamed_addr #3 align 2 {
  %4 = alloca %class.InternalAddress, align 8
  %5 = alloca %class.AddressLiteral, align 8
  %6 = getelementptr inbounds i8, ptr %0, i64 112
  %7 = load ptr, ptr %6, align 8
  %8 = load ptr, ptr %7, align 8
  %9 = getelementptr inbounds i8, ptr %8, i64 8
  %10 = load ptr, ptr %9, align 8
  %11 = tail call noundef i32 %10(ptr noundef nonnull align 8 dereferenceable(8) %7) #23
  %12 = getelementptr inbounds i8, ptr %0, i64 120
  %13 = load ptr, ptr %12, align 8
  %14 = load ptr, ptr %13, align 8
  %15 = getelementptr inbounds i8, ptr %14, i64 8
  %16 = load ptr, ptr %15, align 8
  %17 = tail call noundef i32 %16(ptr noundef nonnull align 8 dereferenceable(8) %13) #23
  %18 = tail call noundef i32 @_ZN7Matcher22vector_length_in_bytesEPK4Node(ptr noundef nonnull %0) #23
  switch i32 %18, label %21 [
    i32 4, label %_ZL22vector_length_encodingPK4Node.exit
    i32 8, label %_ZL22vector_length_encodingPK4Node.exit
    i32 16, label %_ZL22vector_length_encodingPK4Node.exit
    i32 32, label %19
    i32 64, label %20
  ]

19:                                               ; preds = %3
  br label %_ZL22vector_length_encodingPK4Node.exit

20:                                               ; preds = %3
  br label %_ZL22vector_length_encodingPK4Node.exit

21:                                               ; preds = %3
  %22 = load ptr, ptr @g_assert_poison, align 8
  store i8 88, ptr %22, align 1
  tail call void @_Z28report_should_not_reach_herePKci(ptr noundef nonnull @.str.22, i32 noundef 1228) #24
  unreachable

_ZL22vector_length_encodingPK4Node.exit:          ; preds = %3, %3, %3, %19, %20
  %.0.i.i = phi i32 [ 2, %20 ], [ 1, %19 ], [ 0, %3 ], [ 0, %3 ], [ 0, %3 ]
  %23 = add i32 %11, 1
  %24 = add i32 %17, %23
  %25 = tail call noundef zeroext i8 @_ZN7Matcher25vector_element_basic_typeEPK4Node(ptr noundef nonnull %0) #23
  %26 = getelementptr inbounds i8, ptr %1, i64 8
  %27 = load ptr, ptr %26, align 8
  %28 = getelementptr inbounds i8, ptr %27, i64 80
  %29 = load ptr, ptr %28, align 8
  %30 = getelementptr inbounds i8, ptr %29, i64 8
  %31 = load ptr, ptr %30, align 8
  %32 = tail call noundef i32 @_ZN16MachConstantNode15constant_offsetEv(ptr noundef nonnull align 8 dereferenceable(104) %0) #23
  %33 = sext i32 %32 to i64
  %34 = getelementptr inbounds i8, ptr %31, i64 %33
  call void @_ZN14AddressLiteralC2EPhN9relocInfo9relocTypeE(ptr noundef nonnull align 8 dereferenceable(56) %4, ptr noundef %34, i32 noundef 8) #23
  %35 = load ptr, ptr %12, align 8
  %36 = load ptr, ptr %35, align 8
  %37 = getelementptr inbounds i8, ptr %36, i64 40
  %38 = load ptr, ptr %37, align 8
  %39 = call noundef i32 %38(ptr noundef nonnull align 8 dereferenceable(8) %35, ptr noundef %2, ptr noundef nonnull %0, i32 noundef %23) #23
  %or.cond.i.i = icmp ult i32 %39, 32
  %spec.select.i.i = select i1 %or.cond.i.i, i32 %39, i32 -1
  %40 = load ptr, ptr %6, align 8
  %41 = load ptr, ptr %40, align 8
  %42 = getelementptr inbounds i8, ptr %41, i64 40
  %43 = load ptr, ptr %42, align 8
  %44 = call noundef i32 %43(ptr noundef nonnull align 8 dereferenceable(8) %40, ptr noundef %2, ptr noundef nonnull %0, i32 noundef 1) #23
  %or.cond.i.i15 = icmp ult i32 %44, 32
  %spec.select.i.i16 = select i1 %or.cond.i.i15, i32 %44, i32 -1
  %45 = load ptr, ptr %4, align 8
  %46 = getelementptr inbounds i8, ptr %45, i64 16
  %47 = load ptr, ptr %46, align 8
  call void %47(ptr noundef nonnull align 8 dereferenceable(20) %4, ptr noundef nonnull align 8 dereferenceable(40) %5) #23
  %48 = getelementptr inbounds i8, ptr %5, i64 40
  %49 = getelementptr inbounds i8, ptr %4, i64 40
  call void @llvm.memcpy.p0.p0.i64(ptr noundef nonnull align 8 dereferenceable(16) %48, ptr noundef nonnull align 8 dereferenceable(16) %49, i64 16, i1 false)
  %50 = getelementptr inbounds i8, ptr %0, i64 128
  %51 = load ptr, ptr %50, align 8
  %52 = load ptr, ptr %51, align 8
  %53 = getelementptr inbounds i8, ptr %52, i64 40
  %54 = load ptr, ptr %53, align 8
  %55 = call noundef i32 %54(ptr noundef nonnull align 8 dereferenceable(8) %51, ptr noundef %2, ptr noundef nonnull %0, i32 noundef %24) #23
  %or.cond.i.i17 = icmp ult i32 %55, 32
  %spec.select.i.i18 = select i1 %or.cond.i.i17, i32 %55, i32 -1
  call void @_ZN17C2_MacroAssembler23vector_reverse_bit_gfniE9BasicType11XMMRegisterS1_14AddressLiteraliS1_8Register(ptr noundef nonnull align 8 dereferenceable(40) %1, i8 noundef zeroext %25, i32 %spec.select.i.i, i32 %spec.select.i.i16, ptr noundef nonnull %5, i32 noundef %.0.i.i, i32 %spec.select.i.i18, i32 -1) #23
  ret void
}